; Function Attrs: mustprogress uwtable
define hidden void @_ZN6google8protobuf8internal14ArenaStringPtr14ClearToDefaultERKNS1_10LazyStringEPNS0_5ArenaE(ptr noundef nonnull readonly align 8 captures(none) dereferenceable(8) %0, ptr noundef nonnull align 8 dereferenceable(40) %1, ptr noundef readnone captures(none) %2) local_unnamed_addr #3 align 2 personality ptr @__gxx_personality_v0 {
  %4 = load ptr, ptr %0, align 8, !tbaa !16
  %5 = icmp eq ptr %4, null
  br i1 %5, label %12, label %6

6:                                                ; preds = %3
  %7 = getelementptr inbounds nuw i8, ptr %1, i64 32
  %8 = load atomic i64, ptr %7 acquire, align 8
  %.0.i.i.i = inttoptr i64 %8 to ptr
  %9 = icmp eq i64 %8, 0
  br i1 %9, label %10, label %_ZNK6google8protobuf8internal10LazyString3getB5cxx11Ev.exit, !prof !21

10:                                               ; preds = %6
  %11 = tail call noundef nonnull align 8 dereferenceable(32) ptr @_ZNK6google8protobuf8internal10LazyString4InitB5cxx11Ev(ptr noundef nonnull align 8 dereferenceable(40) %1)
  br label %_ZNK6google8protobuf8internal10LazyString3getB5cxx11Ev.exit

_ZNK6google8protobuf8internal10LazyString3getB5cxx11Ev.exit: ; preds = %6, %10
  %.0.i = phi ptr [ %11, %10 ], [ %.0.i.i.i, %6 ]
  tail call void @_ZNSt7__cxx1112basic_stringIcSt11char_traitsIcESaIcEE9_M_assignERKS4_(ptr noundef nonnull align 8 dereferenceable(32) %4, ptr noundef nonnull align 8 dereferenceable(32) %.0.i)
  br label %12

12:                                               ; preds = %_ZNK6google8protobuf8internal10LazyString3getB5cxx11Ev.exit, %3
  ret void
}